; Function Attrs: mustprogress uwtable
define void @Z3_toggle_warning_messages(i1 noundef zeroext %0) local_unnamed_addr #3 personality ptr @__gxx_personality_v0 {
  %2 = atomicrmw xchg ptr @g_z3_log_enabled, i8 0 seq_cst, align 1
  %3 = trunc i8 %2 to i1
  br i1 %3, label %4, label %11

4:                                                ; preds = %1
  invoke void @_Z30log_Z3_toggle_warning_messagesb(i1 noundef zeroext %0)
          to label %11 unwind label %.thread

.thread:                                          ; preds = %4
  %5 = landingpad { ptr, i32 }
          cleanup
  br label %8

6:                                                ; preds = %11
  %7 = landingpad { ptr, i32 }
          cleanup
  br i1 %3, label %8, label %_ZN10z3_log_ctxD2Ev.exit, !prof !550

8:                                                ; preds = %.thread, %6
  %9 = phi { ptr, i32 } [ %5, %.thread ], [ %7, %6 ]
  store atomic i8 1, ptr @g_z3_log_enabled seq_cst, align 1
  br label %_ZN10z3_log_ctxD2Ev.exit

_ZN10z3_log_ctxD2Ev.exit:                         ; preds = %6, %8
  %10 = phi { ptr, i32 } [ %7, %6 ], [ %9, %8 ]
  resume { ptr, i32 } %10

11:                                               ; preds = %4, %1
  invoke void @_Z23enable_warning_messagesb(i1 noundef zeroext %0)
          to label %12 unwind label %6

12:                                               ; preds = %11
  br i1 %3, label %13, label %_ZN10z3_log_ctxD2Ev.exit3, !prof !442

13:                                               ; preds = %12
  store atomic i8 1, ptr @g_z3_log_enabled seq_cst, align 1
  br label %_ZN10z3_log_ctxD2Ev.exit3

_ZN10z3_log_ctxD2Ev.exit3:                        ; preds = %12, %13
  ret void
}